Certificate:
    Data:
        Version: 3 (0x2)
        Serial Number: 1 (0x1)
        Signature Algorithm: sha256WithRSAEncryption
        Issuer: O=Test Org, CN=Test Org rauc CA Development
        Validity
            Not Before: Jan  1 00:00:00 1970 GMT
            Not After : Dec 31 23:59:59 9999 GMT
        Subject: O=Test Org, CN=Test Org rauc CA Development
        Subject Public Key Info:
            Public Key Algorithm: rsaEncryption
                RSA Public-Key: (2048 bit)
                Modulus:
                    00:e0:7c:2e:13:a2:6e:ce:90:cd:03:73:a2:32:d0:
                    ae:23:3f:38:d2:8f:4b:95:57:be:73:43:4f:6f:90:
                    c9:59:a9:db:5f:e4:91:81:20:be:4b:f8:f4:58:59:
                    bc:b6:10:65:a8:5e:1a:69:dc:a3:00:74:c0:c7:84:
                    d3:1c:45:9a:77:79:44:70:ec:6f:95:e7:c4:9a:8e:
                    41:4f:08:02:1c:69:47:aa:ab:f6:3a:32:0f:70:5c:
                    b8:11:77:06:09:9c:03:5d:98:20:fd:06:49:2c:a3:
                    89:e6:93:68:f2:bd:cb:83:d1:09:d2:8b:20:58:9c:
                    bc:b3:1b:e8:d3:60:8b:df:bd:96:53:2f:d3:8d:f6:
                    a6:c9:b7:ce:75:de:6b:2b:2c:ae:a8:e2:6f:18:53:
                    8b:3c:d0:bd:50:38:11:29:ca:88:c4:aa:f6:6b:94:
                    32:9c:ce:9e:ae:11:c3:50:4b:15:54:ad:e8:32:98:
                    1a:c9:0d:ac:cf:0d:50:82:ef:fc:48:5c:c8:e9:ba:
                    f4:1b:e4:a6:1a:e4:6d:ec:06:18:5a:f6:75:ef:50:
                    23:f2:a7:f1:0d:61:78:0c:37:4b:67:98:e6:67:a9:
                    0e:3f:f5:d3:65:3a:0b:71:58:49:34:65:e7:35:35:
                    f6:8c:86:67:02:51:bb:1c:f7:86:80:df:e1:60:0d:
                    ac:fb
                Exponent: 65537 (0x10001)
        X509v3 extensions:
            X509v3 Subject Key Identifier: 
                FF:03:5F:9F:39:A5:3A:4D:6F:02:8C:70:89:9B:21:56:DA:E7:8D:E5
            X509v3 Authority Key Identifier: 
                keyid:FF:03:5F:9F:39:A5:3A:4D:6F:02:8C:70:89:9B:21:56:DA:E7:8D:E5
                DirName:/O=Test Org/CN=Test Org rauc CA Development
                serial:01

            X509v3 Basic Constraints: 
                CA:TRUE
    Signature Algorithm: sha256WithRSAEncryption
         c4:a7:fa:e4:d5:69:9e:71:48:ea:57:ae:e3:60:87:7f:58:a6:
         54:d0:a7:da:e3:30:8c:d4:63:85:fe:0f:2b:ee:cb:4e:50:b2:
         c4:61:ec:0a:50:65:15:15:de:ad:30:d9:f9:63:ac:a8:b8:71:
         3d:40:57:1b:93:60:a8:1d:53:e8:c2:19:85:30:c8:cd:a2:d2:
         79:a2:ed:86:d5:3f:c8:35:61:aa:13:cd:51:9e:2e:b1:63:f9:
         e2:75:00:79:e0:0a:54:3b:12:c6:27:9e:37:a8:d6:d1:64:11:
         40:9c:94:c3:2b:03:59:05:27:0b:04:00:a9:33:2d:f4:63:1c:
         1f:88:53:c1:53:df:2b:7f:e3:a7:df:19:f1:1a:a7:85:ac:e5:
         b1:81:eb:d3:c7:0e:09:e4:5a:e2:d3:ae:1e:18:b1:53:d9:9f:
         4d:a7:f3:ea:1d:c0:44:04:1f:4e:db:b1:8c:06:9b:7a:55:ae:
         8c:68:2a:6e:f9:4e:a0:c9:b0:15:ad:d7:4b:16:cc:0b:23:21:
         09:b6:28:35:00:cf:f6:c1:05:d8:25:9a:a4:df:d3:44:d5:6a:
         36:cd:12:38:7a:19:76:e1:bd:5e:2a:2b:50:f8:74:76:c9:a6:
         4e:a7:97:b5:e8:80:58:50:a1:90:61:28:a2:3e:e5:d4:27:ba:
         b5:bc:5c:11
-----BEGIN CERTIFICATE-----
MIIDhjCCAm6gAwIBAgIBATANBgkqhkiG9w0BAQsFADA6MREwDwYDVQQKDAhUZXN0
IE9yZzElMCMGA1UEAwwcVGVzdCBPcmcgcmF1YyBDQSBEZXZlbG9wbWVudDAgFw03
MDAxMDEwMDAwMDBaGA85OTk5MTIzMTIzNTk1OVowOjERMA8GA1UECgwIVGVzdCBP
cmcxJTAjBgNVBAMMHFRlc3QgT3JnIHJhdWMgQ0EgRGV2ZWxvcG1lbnQwggEiMA0G
CSqGSIb3DQEBAQUAA4IBDwAwggEKAoIBAQDgfC4Tom7OkM0Dc6Iy0K4jPzjSj0uV
V75zQ09vkMlZqdtf5JGBIL5L+PRYWby2EGWoXhpp3KMAdMDHhNMcRZp3eURw7G+V
58SajkFPCAIcaUeqq/Y6Mg9wXLgRdwYJnANdmCD9Bkkso4nmk2jyvcuD0QnSiyBY
nLyzG+jTYIvfvZZTL9ON9qbJt8513msrLK6o4m8YU4s80L1QOBEpyojEqvZrlDKc
zp6uEcNQSxVUregymBrJDazPDVCC7/xIXMjpuvQb5KYa5G3sBhha9nXvUCPyp/EN
YXgMN0tnmOZnqQ4/9dNlOgtxWEk0Zec1NfaMhmcCUbsc94aA3+FgDaz7AgMBAAGj
gZQwgZEwHQYDVR0OBBYEFP8DX585pTpNbwKMcImbIVba543lMGIGA1UdIwRbMFmA
FP8DX585pTpNbwKMcImbIVba543loT6kPDA6MREwDwYDVQQKDAhUZXN0IE9yZzEl
MCMGA1UEAwwcVGVzdCBPcmcgcmF1YyBDQSBEZXZlbG9wbWVudIIBATAMBgNVHRME
BTADAQH/MA0GCSqGSIb3DQEBCwUAA4IBAQDEp/rk1WmecUjqV67jYId/WKZU0Kfa
4zCM1GOF/g8r7stOULLEYewKUGUVFd6tMNn5Y6youHE9QFcbk2CoHVPowhmFMMjN
otJ5ou2G1T/INWGqE81Rni6xY/nidQB54ApUOxLGJ543qNbRZBFAnJTDKwNZBScL
BACpMy30YxwfiFPBU98rf+On3xnxGqeFrOWxgevTxw4J5Fri064eGLFT2Z9Np/Pq
HcBEBB9O27GMBpt6Va6MaCpu+U6gybAVrddLFswLIyEJtig1AM/2wQXYJZqk39NE
1Wo2zRI4ehl24b1eKitQ+HR2yaZOp5e16IBYUKGQYSiiPuXUJ7q1vFwR
-----END CERTIFICATE-----
