Certificate:
    Data:
        Version: 3 (0x2)
        Serial Number: 2 (0x2)
        Signature Algorithm: sha256WithRSAEncryption
        Issuer: O=Test Org, CN=Test Org rauc CA Development
        Validity
            Not Before: Jan  1 00:00:00 1970 GMT
            Not After : Dec 31 23:59:59 9999 GMT
        Subject: O=Test Org, CN=Test Org Development-1
        Subject Public Key Info:
            Public Key Algorithm: rsaEncryption
                RSA Public-Key: (2048 bit)
                Modulus:
                    00:ce:05:96:e5:f3:17:ba:b2:6c:9f:0a:b3:87:d1:
                    de:49:35:c4:8a:04:7c:b1:8c:fd:ec:b7:00:18:44:
                    71:25:e2:ed:ff:2a:6f:17:0b:c4:22:aa:a0:93:3d:
                    9f:71:7b:eb:19:9f:ad:3c:56:aa:36:72:7f:64:95:
                    33:02:80:44:82:4b:8b:09:32:f0:9a:b0:5f:42:f8:
                    b9:6d:6f:48:7d:41:aa:11:cd:d2:62:21:6f:3a:b0:
                    80:95:c0:ee:b1:aa:a3:5c:88:33:6c:a2:5e:ab:0e:
                    07:dc:0b:8d:ff:d1:f9:f5:c2:c0:05:79:10:f5:b8:
                    a9:b8:26:ec:26:96:75:5e:61:ec:ee:59:14:e6:f8:
                    75:5b:11:57:34:55:46:a8:d0:b1:fc:02:a0:ae:f5:
                    f7:41:05:31:5b:b8:d1:21:7e:92:34:41:2b:9c:11:
                    49:b2:be:3c:03:8f:c4:cc:ad:a7:e6:6b:e5:31:f5:
                    a1:97:87:a3:41:00:c6:e6:33:d0:e7:aa:5b:32:87:
                    9c:f5:43:fc:84:63:a7:34:d6:05:e6:c7:30:ea:2a:
                    d4:cd:7e:bf:70:37:6e:95:48:f0:dc:32:f7:7f:e7:
                    6b:9a:e4:6d:e1:97:92:51:5b:54:a7:dc:14:3b:6c:
                    ae:e7:09:df:7f:55:80:67:4c:d7:87:fd:8f:e9:f3:
                    95:8b
                Exponent: 65537 (0x10001)
        X509v3 extensions:
            X509v3 Subject Key Identifier: 
                04:34:FD:8C:0D:A9:C4:7A:9F:2B:15:E9:24:7C:43:E8:D7:AD:92:27
            X509v3 Authority Key Identifier: 
                keyid:FF:03:5F:9F:39:A5:3A:4D:6F:02:8C:70:89:9B:21:56:DA:E7:8D:E5
                DirName:/O=Test Org/CN=Test Org rauc CA Development
                serial:01

            X509v3 Basic Constraints: 
                CA:FALSE
    Signature Algorithm: sha256WithRSAEncryption
         7b:91:25:10:8f:33:69:37:18:24:56:10:9f:8a:2f:64:b9:e5:
         e0:36:88:62:e8:70:80:20:d9:d8:e7:b5:a3:bb:a6:82:af:58:
         27:89:78:21:b7:29:fd:91:55:cd:58:85:3a:c3:0e:5b:b6:e9:
         47:98:60:33:55:fa:32:19:2b:ec:13:9b:65:44:91:df:34:ab:
         fd:f9:54:ed:a3:59:15:7d:c8:df:b5:3d:51:89:b0:83:76:b8:
         9d:08:38:d3:e4:71:c1:ba:d3:e8:e7:d9:05:ed:b6:cc:95:93:
         7a:91:1d:0c:26:c6:d1:e1:9f:e6:ad:81:fd:b8:a7:37:72:3b:
         7f:5f:b9:72:f6:79:18:f0:e0:71:66:87:fb:0d:44:3f:db:10:
         77:dc:ef:d7:f9:2f:d2:67:c0:ef:b2:f9:58:4c:8b:e4:55:1f:
         d8:e6:15:0a:bb:4c:5f:d5:9b:92:ba:7d:b2:bd:40:ae:0f:78:
         de:5c:b9:5d:3d:ce:f6:fd:42:be:83:ad:f3:82:64:d3:07:15:
         db:97:a0:b2:b4:81:03:5a:20:0c:77:b0:10:b8:8e:35:75:cc:
         2e:2b:f1:43:f8:51:b8:c8:3b:80:9f:74:45:9d:cf:af:cd:81:
         a4:25:c2:11:db:e2:af:c5:5a:85:57:57:b8:65:b3:82:9d:00:
         5d:41:98:b3
-----BEGIN CERTIFICATE-----
MIIDfTCCAmWgAwIBAgIBAjANBgkqhkiG9w0BAQsFADA6MREwDwYDVQQKDAhUZXN0
IE9yZzElMCMGA1UEAwwcVGVzdCBPcmcgcmF1YyBDQSBEZXZlbG9wbWVudDAgFw03
MDAxMDEwMDAwMDBaGA85OTk5MTIzMTIzNTk1OVowNDERMA8GA1UECgwIVGVzdCBP
cmcxHzAdBgNVBAMMFlRlc3QgT3JnIERldmVsb3BtZW50LTEwggEiMA0GCSqGSIb3
DQEBAQUAA4IBDwAwggEKAoIBAQDOBZbl8xe6smyfCrOH0d5JNcSKBHyxjP3stwAY
RHEl4u3/Km8XC8QiqqCTPZ9xe+sZn608Vqo2cn9klTMCgESCS4sJMvCasF9C+Llt
b0h9QaoRzdJiIW86sICVwO6xqqNciDNsol6rDgfcC43/0fn1wsAFeRD1uKm4Juwm
lnVeYezuWRTm+HVbEVc0VUao0LH8AqCu9fdBBTFbuNEhfpI0QSucEUmyvjwDj8TM
rafma+Ux9aGXh6NBAMbmM9Dnqlsyh5z1Q/yEY6c01gXmxzDqKtTNfr9wN26VSPDc
Mvd/52ua5G3hl5JRW1Sn3BQ7bK7nCd9/VYBnTNeH/Y/p85WLAgMBAAGjgZEwgY4w
HQYDVR0OBBYEFAQ0/YwNqcR6nysV6SR8Q+jXrZInMGIGA1UdIwRbMFmAFP8DX585
pTpNbwKMcImbIVba543loT6kPDA6MREwDwYDVQQKDAhUZXN0IE9yZzElMCMGA1UE
AwwcVGVzdCBPcmcgcmF1YyBDQSBEZXZlbG9wbWVudIIBATAJBgNVHRMEAjAAMA0G
CSqGSIb3DQEBCwUAA4IBAQB7kSUQjzNpNxgkVhCfii9kueXgNohi6HCAINnY57Wj
u6aCr1gniXghtyn9kVXNWIU6ww5btulHmGAzVfoyGSvsE5tlRJHfNKv9+VTto1kV
fcjftT1RibCDdridCDjT5HHButPo59kF7bbMlZN6kR0MJsbR4Z/mrYH9uKc3cjt/
X7ly9nkY8OBxZof7DUQ/2xB33O/X+S/SZ8DvsvlYTIvkVR/Y5hUKu0xf1ZuSun2y
vUCuD3jeXLldPc72/UK+g63zgmTTBxXbl6CytIEDWiAMd7AQuI41dcwuK/FD+FG4
yDuAn3RFnc+vzYGkJcIR2+KvxVqFV1e4ZbOCnQBdQZiz
-----END CERTIFICATE-----
